target datalayout = "e-m:e-p270:32:32-p271:32:32-p272:64:64-i64:64-i128:128-f80:128-n8:16:32:64-S128"
target triple = "x86_64-pc-linux-gnu"

@.str.7840 = private unnamed_addr constant [66 x i8] c"Age of the satellite clock correction parameters is %u hours (%u)\00", align 1
@.str.7841 = private unnamed_addr constant [65 x i8] c"Age of the satellite clock correction parameters is %u days (%u)\00", align 1
@.str.7842 = private unnamed_addr constant [69 x i8] c"Age of the satellite clock correction parameters is over 7 days (%u)\00", align 1

; Function Attrs: null_pointer_is_valid sspstrong uwtable
define internal void @lpp_bdsAODC_AODE_r12_fmt(ptr noundef %0, i32 noundef %1) #0 {
  %3 = alloca ptr, align 8
  %4 = alloca i32, align 4
  store ptr %0, ptr %3, align 8
  store i32 %1, ptr %4, align 4
  %5 = load i32, ptr %4, align 4
  %6 = icmp ult i32 %5, 25
  br i1 %6, label %7, label %14

7:                                                ; preds = %2
  %8 = load ptr, ptr %3, align 8
  %9 = load ptr, ptr %3, align 8
  %10 = call i64 @llvm.objectsize.i64.p0(ptr %9, i1 false, i1 true, i1 true)
  %11 = load i32, ptr %4, align 4
  %12 = load i32, ptr %4, align 4
  %13 = call i32 (ptr, i64, i32, i64, ptr, ...) @__snprintf_chk(ptr noundef %8, i64 noundef 240, i32 noundef 2, i64 noundef %10, ptr noundef @.str.7840, i32 noundef %11, i32 noundef %12)
  br label %32

14:                                               ; preds = %2
  %15 = load i32, ptr %4, align 4
  %16 = icmp ult i32 %15, 31
  br i1 %16, label %17, label %25

17:                                               ; preds = %14
  %18 = load ptr, ptr %3, align 8
  %19 = load ptr, ptr %3, align 8
  %20 = call i64 @llvm.objectsize.i64.p0(ptr %19, i1 false, i1 true, i1 true)
  %21 = load i32, ptr %4, align 4
  %22 = sub i32 %21, 23
  %23 = load i32, ptr %4, align 4
  %24 = call i32 (ptr, i64, i32, i64, ptr, ...) @__snprintf_chk(ptr noundef %18, i64 noundef 240, i32 noundef 2, i64 noundef %20, ptr noundef @.str.7841, i32 noundef %22, i32 noundef %23)
  br label %31

25:                                               ; preds = %14
  %26 = load ptr, ptr %3, align 8
  %27 = load ptr, ptr %3, align 8
  %28 = call i64 @llvm.objectsize.i64.p0(ptr %27, i1 false, i1 true, i1 true)
  %29 = load i32, ptr %4, align 4
  %30 = call i32 (ptr, i64, i32, i64, ptr, ...) @__snprintf_chk(ptr noundef %26, i64 noundef 240, i32 noundef 2, i64 noundef %28, ptr noundef @.str.7842, i32 noundef %29)
  br label %31

31:                                               ; preds = %25, %17
  br label %32

32:                                               ; preds = %31, %7
  ret void
}