; Function Attrs: nofree null_pointer_is_valid sspstrong uwtable
define internal void @lpp_bdsAODC_AODE_r12_fmt(ptr noundef %0, i32 noundef %1) #3 {
  %3 = icmp ult i32 %1, 25
  br i1 %3, label %4, label %6

4:                                                ; preds = %2
  %5 = tail call i32 (ptr, i64, i32, i64, ptr, ...) @__snprintf_chk(ptr noundef %0, i64 noundef 240, i32 noundef 2, i64 noundef -1, ptr noundef nonnull @.str.7840, i32 noundef %1, i32 noundef %1)
  br label %13

6:                                                ; preds = %2
  %7 = icmp ult i32 %1, 31
  br i1 %7, label %8, label %11

8:                                                ; preds = %6
  %9 = add nsw i32 %1, -23
  %10 = tail call i32 (ptr, i64, i32, i64, ptr, ...) @__snprintf_chk(ptr noundef %0, i64 noundef 240, i32 noundef 2, i64 noundef -1, ptr noundef nonnull @.str.7841, i32 noundef %9, i32 noundef %1)
  br label %13

11:                                               ; preds = %6
  %12 = tail call i32 (ptr, i64, i32, i64, ptr, ...) @__snprintf_chk(ptr noundef %0, i64 noundef 240, i32 noundef 2, i64 noundef -1, ptr noundef nonnull @.str.7842, i32 noundef %1)
  br label %13

13:                                               ; preds = %8, %11, %4
  ret void
}